; Function Attrs: mustprogress uwtable
define void @_ZN6icu_7518AnnualTimeZoneRuleC2ERKNS_13UnicodeStringEiiRKNS_12DateTimeRuleEii(ptr noundef nonnull align 8 dereferenceable(96) %this, ptr noundef nonnull align 8 dereferenceable(64) %name, i32 noundef %rawOffset, i32 noundef %dstSavings, ptr noundef nonnull align 8 dereferenceable(36) %dateTimeRule, i32 noundef %startYear, i32 noundef %endYear) unnamed_addr #0 align 2 personality ptr @__gxx_personality_v0 {
entry:
  store ptr getelementptr inbounds ({ [13 x ptr] }, ptr @_ZTVN6icu_7512TimeZoneRuleE, i64 0, i32 0, i64 2), ptr %this, align 8
  %fName.i = getelementptr inbounds i8, ptr %this, i64 8
  invoke void @_ZN6icu_7513UnicodeStringC1ERKS0_(ptr noundef nonnull align 8 dereferenceable(64) %fName.i, ptr noundef nonnull align 8 dereferenceable(64) %name)
          to label %_ZN6icu_7512TimeZoneRuleC2ERKNS_13UnicodeStringEii.exit unwind label %lpad.i

common.resume:                                    ; preds = %lpad, %lpad.i
  %common.resume.op = phi { ptr, i32 } [ %0, %lpad.i ], [ %1, %lpad ]
  tail call void @_ZN6icu_757UObjectD2Ev(ptr noundef nonnull align 8 dereferenceable(8) %this) #16
  resume { ptr, i32 } %common.resume.op

lpad.i:                                           ; preds = %entry
  %0 = landingpad { ptr, i32 }
          cleanup
  br label %common.resume

_ZN6icu_7512TimeZoneRuleC2ERKNS_13UnicodeStringEii.exit: ; preds = %entry
  %fRawOffset.i = getelementptr inbounds i8, ptr %this, i64 72
  store i32 %rawOffset, ptr %fRawOffset.i, align 8
  %fDSTSavings.i = getelementptr inbounds i8, ptr %this, i64 76
  store i32 %dstSavings, ptr %fDSTSavings.i, align 4
  store ptr getelementptr inbounds ({ [13 x ptr] }, ptr @_ZTVN6icu_7518AnnualTimeZoneRuleE, i64 0, i32 0, i64 2), ptr %this, align 8
  %call = tail call noundef ptr @_ZN6icu_757UMemorynwEm(i64 noundef 40) #16
  %new.isnull = icmp eq ptr %call, null
  br i1 %new.isnull, label %new.cont, label %new.notnull

new.notnull:                                      ; preds = %_ZN6icu_7512TimeZoneRuleC2ERKNS_13UnicodeStringEii.exit
  invoke void @_ZN6icu_7512DateTimeRuleC1ERKS0_(ptr noundef nonnull align 8 dereferenceable(36) %call, ptr noundef nonnull align 8 dereferenceable(36) %dateTimeRule)
          to label %new.cont unwind label %lpad

new.cont:                                         ; preds = %new.notnull, %_ZN6icu_7512TimeZoneRuleC2ERKNS_13UnicodeStringEii.exit
  %fDateTimeRule = getelementptr inbounds i8, ptr %this, i64 80
  store ptr %call, ptr %fDateTimeRule, align 8
  %fStartYear = getelementptr inbounds i8, ptr %this, i64 88
  store i32 %startYear, ptr %fStartYear, align 8
  %fEndYear = getelementptr inbounds i8, ptr %this, i64 92
  store i32 %endYear, ptr %fEndYear, align 4
  ret void

lpad:                                             ; preds = %new.notnull
  %1 = landingpad { ptr, i32 }
          cleanup
  tail call void @_ZN6icu_757UMemorydlEPv(ptr noundef nonnull %call) #16
  store ptr getelementptr inbounds ({ [13 x ptr] }, ptr @_ZTVN6icu_7512TimeZoneRuleE, i64 0, i32 0, i64 2), ptr %this, align 8
  tail call void @_ZN6icu_7513UnicodeStringD1Ev(ptr noundef nonnull align 8 dereferenceable(64) %fName.i) #16
  br label %common.resume
}